; Function Attrs: nounwind uwtable
define ptr @pkcs7_get0_certificates(ptr noundef readonly captures(none) %0) local_unnamed_addr #0 {
  %2 = getelementptr inbounds nuw i8, ptr %0, i64 32
  %3 = load ptr, ptr %2, align 8, !tbaa !14
  %4 = icmp eq ptr %3, null
  br i1 %4, label %17, label %5

5:                                                ; preds = %1
  %6 = getelementptr inbounds nuw i8, ptr %0, i64 24
  %7 = load ptr, ptr %6, align 8, !tbaa !3
  %8 = tail call i32 @OBJ_obj2nid(ptr noundef %7) #7
  %9 = icmp eq i32 %8, 22
  br i1 %9, label %.sink.split, label %10

10:                                               ; preds = %5
  %11 = load ptr, ptr %6, align 8, !tbaa !3
  %12 = tail call i32 @OBJ_obj2nid(ptr noundef %11) #7
  %13 = icmp eq i32 %12, 24
  br i1 %13, label %.sink.split, label %17

.sink.split:                                      ; preds = %10, %5
  %14 = load ptr, ptr %2, align 8, !tbaa !14
  %15 = getelementptr inbounds nuw i8, ptr %14, i64 16
  %16 = load ptr, ptr %15, align 8, !tbaa !81
  br label %17

17:                                               ; preds = %.sink.split, %10, %1
  %.0 = phi ptr [ null, %1 ], [ null, %10 ], [ %16, %.sink.split ]
  ret ptr %.0
}